; Function Attrs: nounwind uwtable
define internal fastcc void @terminate() unnamed_addr #2 {
  tail call void @llvm.memset.p0.i64(ptr noundef nonnull align 8 dereferenceable(16) getelementptr inbounds nuw (i8, ptr @_glfw, i64 133872), i8 0, i64 16, i1 false)
  %1 = load ptr, ptr getelementptr inbounds nuw (i8, ptr @_glfw, i64 1912), align 8, !tbaa !110
  %.not19 = icmp eq ptr %1, null
  br i1 %.not19, label %.preheader18, label %.lr.ph

.preheader18:                                     ; preds = %.lr.ph, %0
  %2 = load ptr, ptr getelementptr inbounds nuw (i8, ptr @_glfw, i64 1904), align 8, !tbaa !111
  %.not1120 = icmp eq ptr %2, null
  br i1 %.not1120, label %.preheader, label %.lr.ph21

.lr.ph:                                           ; preds = %0, %.lr.ph
  %3 = phi ptr [ %4, %.lr.ph ], [ %1, %0 ]
  tail call void @glfwDestroyWindow(ptr noundef nonnull %3) #21
  %4 = load ptr, ptr getelementptr inbounds nuw (i8, ptr @_glfw, i64 1912), align 8, !tbaa !110
  %.not = icmp eq ptr %4, null
  br i1 %.not, label %.preheader18, label %.lr.ph

.preheader:                                       ; preds = %.lr.ph21, %.preheader18
  %5 = load i32, ptr getelementptr inbounds nuw (i8, ptr @_glfw, i64 1928), align 8, !tbaa !112
  %6 = icmp sgt i32 %5, 0
  br i1 %6, label %.lr.ph23, label %._crit_edge

.lr.ph21:                                         ; preds = %.preheader18, %.lr.ph21
  %7 = phi ptr [ %8, %.lr.ph21 ], [ %2, %.preheader18 ]
  tail call void @glfwDestroyCursor(ptr noundef nonnull %7) #21
  %8 = load ptr, ptr getelementptr inbounds nuw (i8, ptr @_glfw, i64 1904), align 8, !tbaa !111
  %.not11 = icmp eq ptr %8, null
  br i1 %.not11, label %.preheader, label %.lr.ph21

.lr.ph23:                                         ; preds = %.preheader, %17
  %indvars.iv = phi i64 [ %indvars.iv.next, %17 ], [ 0, %.preheader ]
  %9 = load ptr, ptr getelementptr inbounds nuw (i8, ptr @_glfw, i64 1920), align 8, !tbaa !113
  %10 = getelementptr inbounds nuw ptr, ptr %9, i64 %indvars.iv
  %11 = load ptr, ptr %10, align 8, !tbaa !114
  %12 = getelementptr inbounds nuw i8, ptr %11, i64 216
  %13 = load i32, ptr %12, align 8, !tbaa !116
  %.not13 = icmp eq i32 %13, 0
  br i1 %.not13, label %17, label %14

14:                                               ; preds = %.lr.ph23
  %15 = getelementptr inbounds nuw i8, ptr %11, i64 192
  %16 = load ptr, ptr getelementptr inbounds nuw (i8, ptr @_glfw, i64 264), align 8, !tbaa !126
  tail call void %16(ptr noundef nonnull %11, ptr noundef nonnull %15) #21
  br label %17

17:                                               ; preds = %14, %.lr.ph23
  tail call void @_glfwFreeMonitor(ptr noundef nonnull %11) #21
  %indvars.iv.next = add nuw nsw i64 %indvars.iv, 1
  %18 = load i32, ptr getelementptr inbounds nuw (i8, ptr @_glfw, i64 1928), align 8, !tbaa !112
  %19 = sext i32 %18 to i64
  %20 = icmp slt i64 %indvars.iv.next, %19
  br i1 %20, label %.lr.ph23, label %._crit_edge

._crit_edge:                                      ; preds = %17, %.preheader
  %21 = load ptr, ptr getelementptr inbounds nuw (i8, ptr @_glfw, i64 1920), align 8, !tbaa !113
  %.not.i = icmp eq ptr %21, null
  br i1 %.not.i, label %_glfw_free.exit, label %22

22:                                               ; preds = %._crit_edge
  %23 = load ptr, ptr getelementptr inbounds nuw (i8, ptr @_glfw, i64 24), align 8, !tbaa !97
  %24 = load ptr, ptr getelementptr inbounds nuw (i8, ptr @_glfw, i64 32), align 8, !tbaa !95
  tail call void %23(ptr noundef nonnull %21, ptr noundef %24) #21
  br label %_glfw_free.exit

_glfw_free.exit:                                  ; preds = %._crit_edge, %22
  store ptr null, ptr getelementptr inbounds nuw (i8, ptr @_glfw, i64 1920), align 8, !tbaa !113
  store i32 0, ptr getelementptr inbounds nuw (i8, ptr @_glfw, i64 1928), align 8, !tbaa !112
  %25 = load ptr, ptr getelementptr inbounds nuw (i8, ptr @_glfw, i64 133392), align 8, !tbaa !127
  %.not.i14 = icmp eq ptr %25, null
  br i1 %.not.i14, label %_glfw_free.exit15, label %26

26:                                               ; preds = %_glfw_free.exit
  %27 = load ptr, ptr getelementptr inbounds nuw (i8, ptr @_glfw, i64 24), align 8, !tbaa !97
  %28 = load ptr, ptr getelementptr inbounds nuw (i8, ptr @_glfw, i64 32), align 8, !tbaa !95
  tail call void %27(ptr noundef nonnull %25, ptr noundef %28) #21
  br label %_glfw_free.exit15

_glfw_free.exit15:                                ; preds = %_glfw_free.exit, %26
  store ptr null, ptr getelementptr inbounds nuw (i8, ptr @_glfw, i64 133392), align 8, !tbaa !127
  store i32 0, ptr getelementptr inbounds nuw (i8, ptr @_glfw, i64 133400), align 8, !tbaa !128
  tail call void @_glfwTerminateVulkan() #21
  %29 = load ptr, ptr getelementptr inbounds nuw (i8, ptr @_glfw, i64 176), align 8, !tbaa !129
  tail call void %29() #21
  %30 = load ptr, ptr getelementptr inbounds nuw (i8, ptr @_glfw, i64 56), align 8, !tbaa !130
  tail call void %30() #21
  store i32 0, ptr @_glfw, align 8, !tbaa !99
  %31 = load ptr, ptr getelementptr inbounds nuw (i8, ptr @_glfw, i64 1896), align 8, !tbaa !100
  %.not1224 = icmp eq ptr %31, null
  br i1 %.not1224, label %._crit_edge25, label %_glfw_free.exit17

_glfw_free.exit17:                                ; preds = %_glfw_free.exit15, %_glfw_free.exit17
  %32 = phi ptr [ %36, %_glfw_free.exit17 ], [ %31, %_glfw_free.exit15 ]
  %33 = load ptr, ptr %32, align 8, !tbaa !101
  store ptr %33, ptr getelementptr inbounds nuw (i8, ptr @_glfw, i64 1896), align 8, !tbaa !100
  %34 = load ptr, ptr getelementptr inbounds nuw (i8, ptr @_glfw, i64 24), align 8, !tbaa !97
  %35 = load ptr, ptr getelementptr inbounds nuw (i8, ptr @_glfw, i64 32), align 8, !tbaa !95
  tail call void %34(ptr noundef nonnull %32, ptr noundef %35) #21
  %36 = load ptr, ptr getelementptr inbounds nuw (i8, ptr @_glfw, i64 1896), align 8, !tbaa !100
  %.not12 = icmp eq ptr %36, null
  br i1 %.not12, label %._crit_edge25, label %_glfw_free.exit17

._crit_edge25:                                    ; preds = %_glfw_free.exit17, %_glfw_free.exit15
  tail call void @_glfwPlatformDestroyTls(ptr noundef nonnull getelementptr inbounds nuw (i8, ptr @_glfw, i64 133412)) #21
  tail call void @_glfwPlatformDestroyTls(ptr noundef nonnull getelementptr inbounds nuw (i8, ptr @_glfw, i64 133404)) #21
  tail call void @_glfwPlatformDestroyMutex(ptr noundef nonnull getelementptr inbounds nuw (i8, ptr @_glfw, i64 133424)) #21
  tail call void @llvm.memset.p0.i64(ptr noundef nonnull align 8 dereferenceable(143664) @_glfw, i8 0, i64 143664, i1 false)
  ret void
}